#include <math.h>
#include <stdio.h>
#include <stdlib.h>
#include <string.h>

int main (){
	int n,i,m,a=0,t;
	scanf("%d",&n);
	for (i=1;i<=n*n;i++)

	{scanf("%d",&m);
	if (m==0)
		a=a+1;
	}
	
	t=(a+4)/4;
	printf("%d",(t-2)*(t-2));
	return 0;
}